; Function Attrs: nounwind uwtable
define void @php_register_variable_safe(ptr nocapture noundef readonly %0, ptr nocapture noundef readonly %1, i64 noundef %2, ptr noundef %3) local_unnamed_addr #0 {
  %5 = alloca %struct._zval_struct, align 8
  %6 = icmp ugt i64 %2, 1
  br i1 %6, label %7, label %16

7:                                                ; preds = %4
  %8 = and i64 %2, -8
  %9 = add i64 %8, 32
  %10 = tail call noalias ptr @_emalloc(i64 noundef %9) #16
  store i32 1, ptr %10, align 4
  %11 = getelementptr inbounds i8, ptr %10, i64 4
  store i32 22, ptr %11, align 4
  %12 = getelementptr inbounds i8, ptr %10, i64 8
  store i64 0, ptr %12, align 8
  %13 = getelementptr inbounds i8, ptr %10, i64 16
  store i64 %2, ptr %13, align 8
  %14 = getelementptr inbounds i8, ptr %10, i64 24
  tail call void @llvm.memcpy.p0.p0.i64(ptr nonnull align 8 %14, ptr align 1 %1, i64 %2, i1 false)
  %15 = getelementptr inbounds [1 x i8], ptr %14, i64 0, i64 %2
  store i8 0, ptr %15, align 1
  br label %25

16:                                               ; preds = %4
  %17 = icmp eq i64 %2, 0
  br i1 %17, label %18, label %20

18:                                               ; preds = %16
  %19 = load ptr, ptr @zend_empty_string, align 8
  br label %25

20:                                               ; preds = %16
  %21 = load i8, ptr %1, align 1
  %22 = zext i8 %21 to i64
  %23 = getelementptr inbounds [256 x ptr], ptr @zend_one_char_string, i64 0, i64 %22
  %24 = load ptr, ptr %23, align 8
  br label %25

25:                                               ; preds = %20, %18, %7
  %.0 = phi ptr [ %10, %7 ], [ %19, %18 ], [ %24, %20 ]
  store ptr %.0, ptr %5, align 8
  %26 = getelementptr inbounds i8, ptr %.0, i64 4
  %27 = load i32, ptr %26, align 4
  %28 = and i32 %27, 64
  %.not = icmp eq i32 %28, 0
  %29 = select i1 %.not, i32 262, i32 6
  %30 = getelementptr inbounds i8, ptr %5, i64 8
  store i32 %29, ptr %30, align 8
  call void @php_register_variable_ex(ptr noundef %0, ptr noundef nonnull %5, ptr noundef %3)
  ret void
}